; Function Attrs: nounwind sspstrong uwtable
define internal noundef i64 @member_i(i64 %0, i64 noundef %1, i32 noundef %2, ptr noundef %3, i64 %4) #0 {
  %6 = inttoptr i64 %1 to ptr
  switch i32 %2, label %9 [
    i32 0, label %rb_enum_values_pack.exit
    i32 1, label %7
  ]

7:                                                ; preds = %5
  %8 = load i64, ptr %3, align 8, !tbaa !7
  br label %rb_enum_values_pack.exit

9:                                                ; preds = %5
  %10 = sext i32 %2 to i64
  %11 = tail call i64 @rb_ary_new_from_values(i64 noundef %10, ptr noundef %3) #14
  br label %rb_enum_values_pack.exit

rb_enum_values_pack.exit:                         ; preds = %5, %7, %9
  %.0.i = phi i64 [ %8, %7 ], [ %11, %9 ], [ 4, %5 ]
  %12 = getelementptr inbounds nuw i8, ptr %6, i64 16
  %13 = load i64, ptr %12, align 8, !tbaa !60
  %14 = tail call i64 @rb_equal(i64 noundef %.0.i, i64 noundef %13) #14
  %.not = icmp eq i64 %14, 0
  br i1 %.not, label %17, label %15

15:                                               ; preds = %rb_enum_values_pack.exit
  %16 = getelementptr inbounds nuw i8, ptr %6, i64 24
  store i64 20, ptr %16, align 8, !tbaa !7
  tail call void @rb_iter_break() #15
  unreachable

17:                                               ; preds = %rb_enum_values_pack.exit
  ret i64 4
}